; Function Attrs: mustprogress nounwind uwtable
define hidden void @_ZN14PhaseIdealLoop42add_unswitched_loop_version_bodies_to_igvnEP13IdealLoopTreeRK9Node_List(ptr nocapture noundef nonnull readonly align 8 dereferenceable(237) %0, ptr noundef nonnull %1, ptr nocapture noundef nonnull readonly align 8 dereferenceable(28) %2) local_unnamed_addr #0 align 2 {
  tail call void @_ZN13IdealLoopTree15record_for_igvnEv(ptr noundef nonnull align 8 dereferenceable(113) %1) #9
  %4 = getelementptr inbounds i8, ptr %1, i64 80
  %5 = load i32, ptr %4, align 8
  %.010 = add i32 %5, -1
  %6 = icmp sgt i32 %.010, -1
  br i1 %6, label %_ZNK10Node_ArrayixEj.exit.lr.ph, label %._crit_edge

_ZNK10Node_ArrayixEj.exit.lr.ph:                  ; preds = %3
  %7 = getelementptr inbounds i8, ptr %1, i64 64
  %8 = getelementptr inbounds i8, ptr %1, i64 72
  %9 = getelementptr inbounds i8, ptr %2, i64 8
  %10 = getelementptr inbounds i8, ptr %2, i64 16
  %11 = getelementptr inbounds i8, ptr %0, i64 56
  %12 = zext nneg i32 %.010 to i64
  br label %_ZNK10Node_ArrayixEj.exit

_ZNK10Node_ArrayixEj.exit:                        ; preds = %_ZNK10Node_ArrayixEj.exit.lr.ph, %_ZN16Unique_Node_List4pushEP4Node.exit
  %indvars.iv = phi i64 [ %12, %_ZNK10Node_ArrayixEj.exit.lr.ph ], [ %indvars.iv.next, %_ZN16Unique_Node_List4pushEP4Node.exit ]
  %13 = load i32, ptr %7, align 8
  %14 = zext i32 %13 to i64
  %15 = icmp ult i64 %indvars.iv, %14
  tail call void @llvm.assume(i1 %15)
  %16 = load ptr, ptr %8, align 8
  %17 = getelementptr inbounds ptr, ptr %16, i64 %indvars.iv
  %18 = load ptr, ptr %17, align 8
  %19 = getelementptr inbounds i8, ptr %18, i64 40
  %20 = load i32, ptr %19, align 8
  %21 = load i32, ptr %9, align 8
  %22 = icmp ugt i32 %21, %20
  br i1 %22, label %23, label %_ZNK10Node_ArrayixEj.exit9

23:                                               ; preds = %_ZNK10Node_ArrayixEj.exit
  %24 = load ptr, ptr %10, align 8
  %25 = zext i32 %20 to i64
  %26 = getelementptr inbounds ptr, ptr %24, i64 %25
  %27 = load ptr, ptr %26, align 8
  br label %_ZNK10Node_ArrayixEj.exit9

_ZNK10Node_ArrayixEj.exit9:                       ; preds = %_ZNK10Node_ArrayixEj.exit, %23
  %28 = phi ptr [ %27, %23 ], [ null, %_ZNK10Node_ArrayixEj.exit ]
  %29 = load ptr, ptr %11, align 8
  %30 = getelementptr inbounds i8, ptr %29, i64 2408
  %31 = load ptr, ptr %30, align 8
  %32 = getelementptr inbounds i8, ptr %31, i64 32
  %33 = getelementptr inbounds i8, ptr %28, i64 40
  %34 = load i32, ptr %33, align 8
  %35 = lshr i32 %34, 5
  %36 = load i32, ptr %32, align 8
  %.not.i.i = icmp ult i32 %35, %36
  br i1 %.not.i.i, label %_ZN9VectorSet8test_setEj.exit.i, label %37

37:                                               ; preds = %_ZNK10Node_ArrayixEj.exit9
  tail call void @_ZN9VectorSet4growEj(ptr noundef nonnull align 8 dereferenceable(32) %32, i32 noundef %35) #9
  br label %_ZN9VectorSet8test_setEj.exit.i

_ZN9VectorSet8test_setEj.exit.i:                  ; preds = %37, %_ZNK10Node_ArrayixEj.exit9
  %38 = and i32 %34, 31
  %39 = shl nuw i32 1, %38
  %40 = getelementptr inbounds i8, ptr %31, i64 40
  %41 = load ptr, ptr %40, align 8
  %42 = zext nneg i32 %35 to i64
  %43 = getelementptr inbounds i32, ptr %41, i64 %42
  %44 = load i32, ptr %43, align 4
  %45 = or i32 %44, %39
  store i32 %45, ptr %43, align 4
  %46 = and i32 %44, %39
  %.not.i = icmp eq i32 %46, 0
  br i1 %.not.i, label %47, label %_ZN16Unique_Node_List4pushEP4Node.exit

47:                                               ; preds = %_ZN9VectorSet8test_setEj.exit.i
  %48 = getelementptr inbounds i8, ptr %31, i64 24
  %49 = load i32, ptr %48, align 8
  %50 = add i32 %49, 1
  store i32 %50, ptr %48, align 8
  %51 = getelementptr inbounds i8, ptr %31, i64 8
  %52 = load i32, ptr %51, align 8
  %.not.i.i.i = icmp ugt i32 %52, %49
  br i1 %.not.i.i.i, label %_ZN9Node_List4pushEP4Node.exit.i, label %53

53:                                               ; preds = %47
  tail call void @_ZN10Node_Array4growEj(ptr noundef nonnull align 8 dereferenceable(24) %31, i32 noundef %49) #9
  br label %_ZN9Node_List4pushEP4Node.exit.i

_ZN9Node_List4pushEP4Node.exit.i:                 ; preds = %53, %47
  %54 = getelementptr inbounds i8, ptr %31, i64 16
  %55 = load ptr, ptr %54, align 8
  %56 = zext i32 %49 to i64
  %57 = getelementptr inbounds ptr, ptr %55, i64 %56
  store ptr %28, ptr %57, align 8
  br label %_ZN16Unique_Node_List4pushEP4Node.exit

_ZN16Unique_Node_List4pushEP4Node.exit:           ; preds = %_ZN9VectorSet8test_setEj.exit.i, %_ZN9Node_List4pushEP4Node.exit.i
  %indvars.iv.next = add nsw i64 %indvars.iv, -1
  %58 = icmp sgt i64 %indvars.iv, 0
  br i1 %58, label %_ZNK10Node_ArrayixEj.exit, label %._crit_edge, !llvm.loop !14

._crit_edge:                                      ; preds = %_ZN16Unique_Node_List4pushEP4Node.exit, %3
  ret void
}